target datalayout = "e-m:e-p270:32:32-p271:32:32-p272:64:64-i64:64-i128:128-f80:128-n8:16:32:64-S128"
target triple = "x86_64-pc-linux-gnu"

%struct.nstime_t = type { i64, i32 }
%struct._address = type { i32, i32, ptr, ptr }
%struct._packet_info = type { ptr, ptr, i32, i32, %struct.nstime_t, %struct.nstime_t, %struct.nstime_t, i8, ptr, ptr, ptr, ptr, %struct._address, %struct._address, %struct._address, %struct._address, %struct._address, %struct._address, i32, ptr, i8, [3 x i8], %struct.anon, i32, i32, i32, i32, ptr, i8, ptr, ptr, i16, i16, i32, i32, i16, i32, i32, ptr, ptr, ptr, i8, i8, i16, i16, i16, i32, i16, i16, ptr, ptr, ptr, ptr, ptr, i32, i32 }
%struct.anon = type { i8, [3 x i8] }
%struct._proto_node = type { ptr, ptr, ptr, ptr, ptr, ptr, ptr }
%struct.field_info = type { ptr, i32, i32, i32, i32, i32, i32, ptr, ptr, ptr, i32, i32 }

@hf_rtpproxy_tag = internal global i32 0, align 4
@hf_rtpproxy_mediaid = internal global i32 0, align 4
@ett_rtpproxy_tag = internal global i32 0, align 4
@.str.188 = private unnamed_addr constant [10 x i8] c", Tag: %s\00", align 1
@.str.189 = private unnamed_addr constant [10 x i8] c"<skipped>\00", align 1
@.str.190 = private unnamed_addr constant [15 x i8] c", Media id: %s\00", align 1

; Function Attrs: inlinehint nounwind null_pointer_is_valid sspstrong uwtable
define internal void @proto_item_set_generated(ptr noundef %0) #5 {
  %2 = alloca ptr, align 8
  store ptr %0, ptr %2, align 8
  %3 = load ptr, ptr %2, align 8
  %4 = icmp ne ptr %3, null
  br i1 %4, label %5, label %24

5:                                                ; preds = %1
  br label %6

6:                                                ; preds = %5
  %7 = load ptr, ptr %2, align 8
  %8 = getelementptr inbounds nuw %struct._proto_node, ptr %7, i32 0, i32 5
  %9 = load ptr, ptr %8, align 8
  %10 = icmp ne ptr %9, null
  br i1 %10, label %11, label %22

11:                                               ; preds = %6
  %12 = load ptr, ptr %2, align 8
  %13 = getelementptr inbounds nuw %struct._proto_node, ptr %12, i32 0, i32 5
  %14 = load ptr, ptr %13, align 8
  %15 = getelementptr inbounds nuw %struct.field_info, ptr %14, i32 0, i32 6
  %16 = load i32, ptr %15, align 4
  %17 = or i32 %16, 2
  %18 = load ptr, ptr %2, align 8
  %19 = getelementptr inbounds nuw %struct._proto_node, ptr %18, i32 0, i32 5
  %20 = load ptr, ptr %19, align 8
  %21 = getelementptr inbounds nuw %struct.field_info, ptr %20, i32 0, i32 6
  store i32 %17, ptr %21, align 4
  br label %22

22:                                               ; preds = %11, %6
  br label %23

23:                                               ; preds = %22
  br label %24

24:                                               ; preds = %23, %1
  ret void
}

; Function Attrs: null_pointer_is_valid sspstrong uwtable
define internal i32 @rtpproxy_add_tag(ptr noundef %0, ptr noundef %1, ptr noundef %2, i32 noundef %3, i32 noundef %4) #0 {
  %6 = alloca ptr, align 8
  %7 = alloca ptr, align 8
  %8 = alloca ptr, align 8
  %9 = alloca i32, align 4
  %10 = alloca i32, align 4
  %11 = alloca ptr, align 8
  %12 = alloca ptr, align 8
  %13 = alloca i32, align 4
  %14 = alloca i32, align 4
  %15 = alloca ptr, align 8
  store ptr %0, ptr %6, align 8
  store ptr %1, ptr %7, align 8
  store ptr %2, ptr %8, align 8
  store i32 %3, ptr %9, align 4
  store i32 %4, ptr %10, align 4
  call void @llvm.lifetime.start.p0(i64 8, ptr %11) #12
  store ptr null, ptr %11, align 8
  call void @llvm.lifetime.start.p0(i64 8, ptr %12) #12
  store ptr null, ptr %12, align 8
  call void @llvm.lifetime.start.p0(i64 4, ptr %13) #12
  call void @llvm.lifetime.start.p0(i64 4, ptr %14) #12
  call void @llvm.lifetime.start.p0(i64 8, ptr %15) #12
  %16 = load ptr, ptr %6, align 8
  %17 = load i32, ptr %9, align 4
  %18 = call i32 @tvb_find_uint8(ptr noundef %16, i32 noundef %17, i32 noundef -1, i8 noundef zeroext 32)
  store i32 %18, ptr %13, align 4
  %19 = load i32, ptr %13, align 4
  %20 = icmp slt i32 %19, 0
  br i1 %20, label %21, label %23

21:                                               ; preds = %5
  %22 = load i32, ptr %10, align 4
  store i32 %22, ptr %14, align 4
  br label %25

23:                                               ; preds = %5
  %24 = load i32, ptr %13, align 4
  store i32 %24, ptr %14, align 4
  br label %25

25:                                               ; preds = %23, %21
  %26 = load ptr, ptr %6, align 8
  %27 = load i32, ptr %9, align 4
  %28 = load i32, ptr %14, align 4
  %29 = call i32 @tvb_find_uint8(ptr noundef %26, i32 noundef %27, i32 noundef %28, i8 noundef zeroext 59)
  store i32 %29, ptr %13, align 4
  %30 = load i32, ptr %13, align 4
  %31 = icmp eq i32 %30, -1
  br i1 %31, label %32, label %59

32:                                               ; preds = %25
  %33 = load ptr, ptr %8, align 8
  %34 = load i32, ptr @hf_rtpproxy_tag, align 4
  %35 = load ptr, ptr %6, align 8
  %36 = load i32, ptr %9, align 4
  %37 = load i32, ptr %14, align 4
  %38 = load i32, ptr %9, align 4
  %39 = sub i32 %37, %38
  %40 = load ptr, ptr %7, align 8
  %41 = getelementptr inbounds nuw %struct._packet_info, ptr %40, i32 0, i32 51
  %42 = load ptr, ptr %41, align 8
  %43 = call ptr @proto_tree_add_item_ret_string(ptr noundef %33, i32 noundef %34, ptr noundef %35, i32 noundef %36, i32 noundef %39, i32 noundef 0, ptr noundef %42, ptr noundef %15)
  store ptr %43, ptr %11, align 8
  %44 = load ptr, ptr %7, align 8
  %45 = getelementptr inbounds nuw %struct._packet_info, ptr %44, i32 0, i32 1
  %46 = load ptr, ptr %45, align 8
  %47 = load ptr, ptr %15, align 8
  call void (ptr, i32, ptr, ...) @col_append_fstr(ptr noundef %46, i32 noundef 25, ptr noundef @.str.188, ptr noundef %47)
  %48 = load ptr, ptr %11, align 8
  %49 = load i32, ptr @ett_rtpproxy_tag, align 4
  %50 = call ptr @proto_item_add_subtree(ptr noundef %48, i32 noundef %49)
  store ptr %50, ptr %12, align 8
  %51 = load ptr, ptr %12, align 8
  %52 = load i32, ptr @hf_rtpproxy_mediaid, align 4
  %53 = load ptr, ptr %6, align 8
  %54 = load i32, ptr %13, align 4
  %55 = add i32 %54, 1
  %56 = call ptr @proto_tree_add_item(ptr noundef %51, i32 noundef %52, ptr noundef %53, i32 noundef %55, i32 noundef 0, i32 noundef 0)
  store ptr %56, ptr %11, align 8
  %57 = load ptr, ptr %11, align 8
  call void (ptr, ptr, ...) @proto_item_append_text(ptr noundef %57, ptr noundef @.str.189)
  %58 = load ptr, ptr %11, align 8
  call void @proto_item_set_generated(ptr noundef %58)
  br label %102

59:                                               ; preds = %25
  %60 = load ptr, ptr %8, align 8
  %61 = load i32, ptr @hf_rtpproxy_tag, align 4
  %62 = load ptr, ptr %6, align 8
  %63 = load i32, ptr %9, align 4
  %64 = load i32, ptr %13, align 4
  %65 = load i32, ptr %9, align 4
  %66 = sub i32 %64, %65
  %67 = load ptr, ptr %7, align 8
  %68 = getelementptr inbounds nuw %struct._packet_info, ptr %67, i32 0, i32 51
  %69 = load ptr, ptr %68, align 8
  %70 = call ptr @proto_tree_add_item_ret_string(ptr noundef %60, i32 noundef %61, ptr noundef %62, i32 noundef %63, i32 noundef %66, i32 noundef 0, ptr noundef %69, ptr noundef %15)
  store ptr %70, ptr %11, align 8
  %71 = load ptr, ptr %7, align 8
  %72 = getelementptr inbounds nuw %struct._packet_info, ptr %71, i32 0, i32 1
  %73 = load ptr, ptr %72, align 8
  %74 = load ptr, ptr %15, align 8
  call void (ptr, i32, ptr, ...) @col_append_fstr(ptr noundef %73, i32 noundef 25, ptr noundef @.str.188, ptr noundef %74)
  %75 = load i32, ptr %13, align 4
  %76 = load i32, ptr %9, align 4
  %77 = icmp eq i32 %75, %76
  br i1 %77, label %78, label %81

78:                                               ; preds = %59
  %79 = load ptr, ptr %11, align 8
  call void (ptr, ptr, ...) @proto_item_append_text(ptr noundef %79, ptr noundef @.str.189)
  %80 = load ptr, ptr %11, align 8
  call void @proto_item_set_generated(ptr noundef %80)
  br label %81

81:                                               ; preds = %78, %59
  %82 = load ptr, ptr %11, align 8
  %83 = load i32, ptr @ett_rtpproxy_tag, align 4
  %84 = call ptr @proto_item_add_subtree(ptr noundef %82, i32 noundef %83)
  store ptr %84, ptr %12, align 8
  %85 = load ptr, ptr %12, align 8
  %86 = load i32, ptr @hf_rtpproxy_mediaid, align 4
  %87 = load ptr, ptr %6, align 8
  %88 = load i32, ptr %13, align 4
  %89 = add i32 %88, 1
  %90 = load i32, ptr %14, align 4
  %91 = load i32, ptr %13, align 4
  %92 = add i32 %91, 1
  %93 = sub i32 %90, %92
  %94 = load ptr, ptr %7, align 8
  %95 = getelementptr inbounds nuw %struct._packet_info, ptr %94, i32 0, i32 51
  %96 = load ptr, ptr %95, align 8
  %97 = call ptr @proto_tree_add_item_ret_string(ptr noundef %85, i32 noundef %86, ptr noundef %87, i32 noundef %89, i32 noundef %93, i32 noundef 0, ptr noundef %96, ptr noundef %15)
  %98 = load ptr, ptr %7, align 8
  %99 = getelementptr inbounds nuw %struct._packet_info, ptr %98, i32 0, i32 1
  %100 = load ptr, ptr %99, align 8
  %101 = load ptr, ptr %15, align 8
  call void (ptr, i32, ptr, ...) @col_append_fstr(ptr noundef %100, i32 noundef 25, ptr noundef @.str.190, ptr noundef %101)
  br label %102

102:                                              ; preds = %81, %32
  %103 = load i32, ptr %14, align 4
  %104 = load i32, ptr %10, align 4
  %105 = icmp eq i32 %103, %104
  br i1 %105, label %106, label %107

106:                                              ; preds = %102
  br label %109

107:                                              ; preds = %102
  %108 = load i32, ptr %14, align 4
  br label %109

109:                                              ; preds = %107, %106
  %110 = phi i32 [ -1, %106 ], [ %108, %107 ]
  call void @llvm.lifetime.end.p0(i64 8, ptr %15) #12
  call void @llvm.lifetime.end.p0(i64 4, ptr %14) #12
  call void @llvm.lifetime.end.p0(i64 4, ptr %13) #12
  call void @llvm.lifetime.end.p0(i64 8, ptr %12) #12
  call void @llvm.lifetime.end.p0(i64 8, ptr %11) #12
  ret i32 %110
}