; Function Attrs: null_pointer_is_valid sspstrong uwtable
define internal fastcc noundef i32 @rtpproxy_add_tag(ptr noundef %0, ptr noundef readonly captures(none) %1, ptr noundef %2, i32 noundef %3, i32 noundef %4) unnamed_addr #0 {
  %6 = alloca ptr, align 8
  call void @llvm.lifetime.start.p0(i64 8, ptr nonnull %6) #10
  %7 = tail call i32 @tvb_find_uint8(ptr noundef %0, i32 noundef %3, i32 noundef -1, i8 noundef zeroext 32)
  %8 = icmp slt i32 %7, 0
  %. = select i1 %8, i32 %4, i32 %7
  %9 = tail call i32 @tvb_find_uint8(ptr noundef %0, i32 noundef %3, i32 noundef %., i8 noundef zeroext 59)
  %10 = icmp eq i32 %9, -1
  %11 = load i32, ptr @hf_rtpproxy_tag, align 4
  %12 = getelementptr inbounds nuw i8, ptr %1, i64 408
  %13 = load ptr, ptr %12, align 8
  %14 = getelementptr inbounds nuw i8, ptr %1, i64 8
  br i1 %10, label %15, label %31

15:                                               ; preds = %5
  %16 = sub i32 %., %3
  %17 = call ptr @proto_tree_add_item_ret_string(ptr noundef %2, i32 noundef %11, ptr noundef %0, i32 noundef %3, i32 noundef %16, i32 noundef 0, ptr noundef %13, ptr noundef nonnull %6)
  %18 = load ptr, ptr %14, align 8
  %19 = load ptr, ptr %6, align 8
  call void (ptr, i32, ptr, ...) @col_append_fstr(ptr noundef %18, i32 noundef 25, ptr noundef nonnull @.str.188, ptr noundef %19)
  %20 = load i32, ptr @ett_rtpproxy_tag, align 4
  %21 = call ptr @proto_item_add_subtree(ptr noundef %17, i32 noundef %20)
  %22 = load i32, ptr @hf_rtpproxy_mediaid, align 4
  %23 = call ptr @proto_tree_add_item(ptr noundef %21, i32 noundef %22, ptr noundef %0, i32 noundef 0, i32 noundef 0, i32 noundef 0)
  call void (ptr, ptr, ...) @proto_item_append_text(ptr noundef %23, ptr noundef nonnull @.str.189)
  %.not.i = icmp eq ptr %23, null
  br i1 %.not.i, label %proto_item_set_generated.exit, label %24

24:                                               ; preds = %15
  %25 = getelementptr inbounds nuw i8, ptr %23, i64 40
  %26 = load ptr, ptr %25, align 8
  %.not5.i = icmp eq ptr %26, null
  br i1 %.not5.i, label %proto_item_set_generated.exit, label %27

27:                                               ; preds = %24
  %28 = getelementptr inbounds nuw i8, ptr %26, i64 28
  %29 = load i32, ptr %28, align 4
  %30 = or i32 %29, 2
  store i32 %30, ptr %28, align 4
  br label %proto_item_set_generated.exit

31:                                               ; preds = %5
  %32 = sub i32 %9, %3
  %33 = call ptr @proto_tree_add_item_ret_string(ptr noundef %2, i32 noundef %11, ptr noundef %0, i32 noundef %3, i32 noundef %32, i32 noundef 0, ptr noundef %13, ptr noundef nonnull %6)
  %34 = load ptr, ptr %14, align 8
  %35 = load ptr, ptr %6, align 8
  call void (ptr, i32, ptr, ...) @col_append_fstr(ptr noundef %34, i32 noundef 25, ptr noundef nonnull @.str.188, ptr noundef %35)
  %36 = icmp eq i32 %9, %3
  br i1 %36, label %37, label %proto_item_set_generated.exit47

37:                                               ; preds = %31
  call void (ptr, ptr, ...) @proto_item_append_text(ptr noundef %33, ptr noundef nonnull @.str.189)
  %.not.i45 = icmp eq ptr %33, null
  br i1 %.not.i45, label %proto_item_set_generated.exit47, label %38

38:                                               ; preds = %37
  %39 = getelementptr inbounds nuw i8, ptr %33, i64 40
  %40 = load ptr, ptr %39, align 8
  %.not5.i46 = icmp eq ptr %40, null
  br i1 %.not5.i46, label %proto_item_set_generated.exit47, label %41

41:                                               ; preds = %38
  %42 = getelementptr inbounds nuw i8, ptr %40, i64 28
  %43 = load i32, ptr %42, align 4
  %44 = or i32 %43, 2
  store i32 %44, ptr %42, align 4
  br label %proto_item_set_generated.exit47

proto_item_set_generated.exit47:                  ; preds = %41, %38, %37, %31
  %45 = load i32, ptr @ett_rtpproxy_tag, align 4
  %46 = call ptr @proto_item_add_subtree(ptr noundef %33, i32 noundef %45)
  %47 = load i32, ptr @hf_rtpproxy_mediaid, align 4
  %48 = add nuw i32 %9, 1
  %49 = sub i32 %., %48
  %50 = load ptr, ptr %12, align 8
  %51 = call ptr @proto_tree_add_item_ret_string(ptr noundef %46, i32 noundef %47, ptr noundef %0, i32 noundef %48, i32 noundef %49, i32 noundef 0, ptr noundef %50, ptr noundef nonnull %6)
  %52 = load ptr, ptr %14, align 8
  %53 = load ptr, ptr %6, align 8
  call void (ptr, i32, ptr, ...) @col_append_fstr(ptr noundef %52, i32 noundef 25, ptr noundef nonnull @.str.190, ptr noundef %53)
  br label %proto_item_set_generated.exit

proto_item_set_generated.exit:                    ; preds = %27, %24, %15, %proto_item_set_generated.exit47
  %54 = icmp eq i32 %., %4
  %55 = select i1 %54, i32 -1, i32 %.
  call void @llvm.lifetime.end.p0(i64 8, ptr nonnull %6) #10
  ret i32 %55
}